---
triple:          'arm64-apple-darwin'
binary-path:     '/Users/vanadium/Documents/study/ads/project/ADS-Project6/src/code/output/solution'
relocations:
  - { offset: 0x3F, size: 0x8, addend: 0x0, symName: _width_of_bin, symObjAddr: 0x289B0, symBinAddr: 0x100008000, symSize: 0x0 }
  - { offset: 0x5B, size: 0x8, addend: 0x0, symName: _height_of_bin, symObjAddr: 0x289B8, symBinAddr: 0x100008008, symSize: 0x0 }
  - { offset: 0x70, size: 0x8, addend: 0x0, symName: _n, symObjAddr: 0x289C0, symBinAddr: 0x100008010, symSize: 0x0 }
  - { offset: 0x85, size: 0x8, addend: 0x0, symName: _arr_rect, symObjAddr: 0x289C8, symBinAddr: 0x100008018, symSize: 0x0 }
  - { offset: 0x4C76, size: 0x8, addend: 0x0, symName: __ZNSt3__124__put_character_sequenceB8ue170006IcNS_11char_traitsIcEEEERNS_13basic_ostreamIT_T0_EES7_PKS4_m, symObjAddr: 0x22CC, symBinAddr: 0x100002EA8, symSize: 0x1F4 }
  - { offset: 0x5CEB, size: 0x8, addend: 0x0, symName: __ZNSt3__1neB8ue170006IPKNS_4pairIyyEEEEbRKNS_11__wrap_iterIT_EES9_, symObjAddr: 0x14C, symBinAddr: 0x100000D28, symSize: 0x34 }
  - { offset: 0x5D2E, size: 0x8, addend: 0x0, symName: __ZNSt3__1lsB8ue170006INS_11char_traitsIcEEEERNS_13basic_ostreamIcT_EES6_PKc, symObjAddr: 0x3BC, symBinAddr: 0x100000F98, symSize: 0x48 }
  - { offset: 0x5D74, size: 0x8, addend: 0x0, symName: __ZNSt3__1eqB8ue170006IPKNS_4pairIyyEEEEbRKNS_11__wrap_iterIT_EES9_, symObjAddr: 0x488, symBinAddr: 0x100001064, symSize: 0x48 }
  - { offset: 0x5DB7, size: 0x8, addend: 0x0, symName: __ZNSt3__112__to_addressB8ue170006INS_4pairIyyEEEEPT_S4_, symObjAddr: 0x998, symBinAddr: 0x100001574, symSize: 0x14 }
  - { offset: 0x5DEC, size: 0x8, addend: 0x0, symName: __ZNSt3__130__libcpp_is_constant_evaluatedB8ue170006Ev, symObjAddr: 0xAA0, symBinAddr: 0x10000167C, symSize: 0xC }
  - { offset: 0x5E09, size: 0x8, addend: 0x0, symName: __ZNSt3__119__libcpp_deallocateB8ue170006EPvmm, symObjAddr: 0xAAC, symBinAddr: 0x100001688, symSize: 0x30 }
  - { offset: 0x5E51, size: 0x8, addend: 0x0, symName: __ZNSt3__127__do_deallocate_handle_sizeB8ue170006IJEEEvPvmDpT_, symObjAddr: 0xADC, symBinAddr: 0x1000016B8, symSize: 0x28 }
  - { offset: 0x5E8F, size: 0x8, addend: 0x0, symName: __ZNSt3__124__libcpp_operator_deleteB8ue170006IJPvEEEvDpT_, symObjAddr: 0xB04, symBinAddr: 0x1000016E0, symSize: 0x24 }
  - { offset: 0x5EC4, size: 0x8, addend: 0x0, symName: __ZNSt3__13maxB8ue170006ImEERKT_S3_S3_, symObjAddr: 0x11B0, symBinAddr: 0x100001D8C, symSize: 0x2C }
  - { offset: 0x5F07, size: 0x8, addend: 0x0, symName: __ZNSt3__13minB8ue170006ImEERKT_S3_S3_, symObjAddr: 0x11DC, symBinAddr: 0x100001DB8, symSize: 0x2C }
  - { offset: 0x614B, size: 0x8, addend: 0x0, symName: __ZNSt3__13minB8ue170006ImNS_6__lessIvvEEEERKT_S5_S5_T0_, symObjAddr: 0x1268, symBinAddr: 0x100001E44, symSize: 0x54 }
  - { offset: 0x61EA, size: 0x8, addend: 0x0, symName: __ZNSt3__120__throw_length_errorB8ue170006EPKc, symObjAddr: 0x1344, symBinAddr: 0x100001F20, symSize: 0x64 }
  - { offset: 0x6214, size: 0x8, addend: 0x0, symName: __ZNSt3__13maxB8ue170006ImNS_6__lessIvvEEEERKT_S5_S5_T0_, symObjAddr: 0x1420, symBinAddr: 0x100001FFC, symSize: 0x54 }
  - { offset: 0x626E, size: 0x8, addend: 0x0, symName: __ZNSt3__119__allocate_at_leastB8ue170006INS_9allocatorINS_4pairIyyEEEEEENS_19__allocation_resultINS_16allocator_traitsIT_E7pointerEEERS7_m, symObjAddr: 0x1584, symBinAddr: 0x100002160, symSize: 0x40 }
  - { offset: 0x62B1, size: 0x8, addend: 0x0, symName: __ZNSt3__117__libcpp_allocateB8ue170006Emm, symObjAddr: 0x1734, symBinAddr: 0x100002310, symSize: 0x28 }
  - { offset: 0x62EE, size: 0x8, addend: 0x0, symName: __ZNSt3__121__libcpp_operator_newB8ue170006IJmEEEPvDpT_, symObjAddr: 0x175C, symBinAddr: 0x100002338, symSize: 0x24 }
  - { offset: 0x6327, size: 0x8, addend: 0x0, symName: __ZNSt3__142__uninitialized_allocator_move_if_noexceptB8ue170006INS_9allocatorINS_4pairIyyEEEENS_16reverse_iteratorIPS3_EES7_S7_EET2_RT_T0_T1_S8_, symObjAddr: 0x17E4, symBinAddr: 0x1000023C0, symSize: 0x134 }
  - { offset: 0x63C7, size: 0x8, addend: 0x0, symName: __ZNSt3__14swapB8ue170006IPNS_4pairIyyEEEEvRT_S5_, symObjAddr: 0x1964, symBinAddr: 0x100002540, symSize: 0x3C }
  - { offset: 0x6418, size: 0x8, addend: 0x0, symName: __ZNSt3__122__make_exception_guardB8ue170006INS_29_AllocatorDestroyRangeReverseINS_9allocatorINS_4pairIyyEEEENS_16reverse_iteratorIPS4_EEEEEENS_28__exception_guard_exceptionsIT_EESB_, symObjAddr: 0x1A4C, symBinAddr: 0x100002628, symSize: 0x4C }
  - { offset: 0x644E, size: 0x8, addend: 0x0, symName: __ZNSt3__1neB8ue170006IPNS_4pairIyyEES3_EEbRKNS_16reverse_iteratorIT_EERKNS4_IT0_EE, symObjAddr: 0x1ADC, symBinAddr: 0x1000026B8, symSize: 0x48 }
  - { offset: 0x649A, size: 0x8, addend: 0x0, symName: __ZNSt3__112__to_addressB8ue170006INS_16reverse_iteratorIPNS_4pairIyyEEEEvEEu7__decayIDTclsr19__to_address_helperIT_EE6__callclsr3stdE7declvalIRKS6_EEEEES8_, symObjAddr: 0x1B58, symBinAddr: 0x100002734, symSize: 0x24 }
  - { offset: 0x64F9, size: 0x8, addend: 0x0, symName: __ZNSt3__119__allocator_destroyB8ue170006INS_9allocatorINS_4pairIyyEEEENS_16reverse_iteratorINS5_IPS3_EEEES8_EEvRT_T0_T1_, symObjAddr: 0x1E3C, symBinAddr: 0x100002A18, symSize: 0x70 }
  - { offset: 0x655E, size: 0x8, addend: 0x0, symName: __ZNSt3__1neB8ue170006INS_16reverse_iteratorIPNS_4pairIyyEEEES5_EEbRKNS1_IT_EERKNS1_IT0_EE, symObjAddr: 0x1EE8, symBinAddr: 0x100002AC4, symSize: 0x60 }
  - { offset: 0x65AA, size: 0x8, addend: 0x0, symName: __ZNSt3__112__to_addressB8ue170006INS_16reverse_iteratorINS1_IPNS_4pairIyyEEEEEEvEEu7__decayIDTclsr19__to_address_helperIT_EE6__callclsr3stdE7declvalIRKS7_EEEEES9_, symObjAddr: 0x1F48, symBinAddr: 0x100002B24, symSize: 0x24 }
  - { offset: 0x6609, size: 0x8, addend: 0x0, symName: __ZNSt3__116__pad_and_outputB8ue170006IcNS_11char_traitsIcEEEENS_19ostreambuf_iteratorIT_T0_EES6_PKS4_S8_S8_RNS_8ios_baseES4_, symObjAddr: 0x2524, symBinAddr: 0x100003100, symSize: 0x248 }
  - { offset: 0x66D8, size: 0x8, addend: 0x0, symName: __ZNSt3__112__to_addressB8ue170006IKcEEPT_S3_, symObjAddr: 0x2A94, symBinAddr: 0x100003670, symSize: 0x14 }
  - { offset: 0x6740, size: 0x8, addend: 0x0, symName: __ZNSt3__19use_facetB8ue170006INS_5ctypeIcEEEERKT_RKNS_6localeE, symObjAddr: 0x2D6C, symBinAddr: 0x100003948, symSize: 0x2C }
  - { offset: 0x6C0D, size: 0x8, addend: 0x0, symName: __ZNSt3__118__constexpr_strlenB8ue170006EPKc, symObjAddr: 0x2E04, symBinAddr: 0x1000039E0, symSize: 0x24 }
  - { offset: 0x78CA, size: 0x8, addend: 0x0, symName: __ZSt28__throw_bad_array_new_lengthB8ue170006v, symObjAddr: 0x1700, symBinAddr: 0x1000022DC, symSize: 0x34 }
  - { offset: 0x7D8D, size: 0x8, addend: 0x0, symName: __ZNSt3__16vectorINS_4pairIyyEENS_9allocatorIS2_EEE26__swap_out_circular_bufferERNS_14__split_bufferIS2_RS4_EE, symObjAddr: 0xFE4, symBinAddr: 0x100001BC0, symSize: 0x110 }
  - { offset: 0x7F27, size: 0x8, addend: 0x0, symName: __Z26calculate_utilization_rateRKNSt3__16vectorINS_4pairIyyEENS_9allocatorIS2_EEEEyy, symObjAddr: 0x0, symBinAddr: 0x100000BDC, symSize: 0xEC }
  - { offset: 0x7FD9, size: 0x8, addend: 0x0, symName: __ZNKSt3__16vectorINS_4pairIyyEENS_9allocatorIS2_EEE5beginB8ue170006Ev, symObjAddr: 0xEC, symBinAddr: 0x100000CC8, symSize: 0x30 }
  - { offset: 0x7FFF, size: 0x8, addend: 0x0, symName: __ZNKSt3__16vectorINS_4pairIyyEENS_9allocatorIS2_EEE3endB8ue170006Ev, symObjAddr: 0x11C, symBinAddr: 0x100000CF8, symSize: 0x30 }
  - { offset: 0x8025, size: 0x8, addend: 0x0, symName: __ZNKSt3__111__wrap_iterIPKNS_4pairIyyEEEdeB8ue170006Ev, symObjAddr: 0x180, symBinAddr: 0x100000D5C, symSize: 0x18 }
  - { offset: 0x8049, size: 0x8, addend: 0x0, symName: __ZNSt3__111__wrap_iterIPKNS_4pairIyyEEEppB8ue170006Ev, symObjAddr: 0x198, symBinAddr: 0x100000D74, symSize: 0x20 }
  - { offset: 0x806D, size: 0x8, addend: 0x0, symName: __ZNSt3__16vectorINS_4pairIyyEENS_9allocatorIS2_EEEC1B8ue170006Ev, symObjAddr: 0x1B8, symBinAddr: 0x100000D94, symSize: 0x2C }
  - { offset: 0x8095, size: 0x8, addend: 0x0, symName: __ZNSt3__16vectorINS_4pairIyyEENS_9allocatorIS2_EEED1B8ue170006Ev, symObjAddr: 0x1E4, symBinAddr: 0x100000DC0, symSize: 0x2C }
  - { offset: 0x80BD, size: 0x8, addend: 0x0, symName: _main, symObjAddr: 0x210, symBinAddr: 0x100000DEC, symSize: 0x114 }
  - { offset: 0x812B, size: 0x8, addend: 0x0, symName: __ZNSt3__14pairIyyEC1B8ue170006Ev, symObjAddr: 0x324, symBinAddr: 0x100000F00, symSize: 0x2C }
  - { offset: 0x8153, size: 0x8, addend: 0x0, symName: __ZNSt3__16vectorINS_4pairIyyEENS_9allocatorIS2_EEE9push_backB8ue170006ERKS2_, symObjAddr: 0x350, symBinAddr: 0x100000F2C, symSize: 0x6C }
  - { offset: 0x8188, size: 0x8, addend: 0x0, symName: __ZNKSt3__16vectorINS_4pairIyyEENS_9allocatorIS2_EEE11__make_iterB8ue170006EPKS2_, symObjAddr: 0x404, symBinAddr: 0x100000FE0, symSize: 0x30 }
  - { offset: 0x81BB, size: 0x8, addend: 0x0, symName: __ZNSt3__111__wrap_iterIPKNS_4pairIyyEEEC1B8ue170006ES4_, symObjAddr: 0x434, symBinAddr: 0x100001010, symSize: 0x34 }
  - { offset: 0x81F1, size: 0x8, addend: 0x0, symName: __ZNSt3__111__wrap_iterIPKNS_4pairIyyEEEC2B8ue170006ES4_, symObjAddr: 0x468, symBinAddr: 0x100001044, symSize: 0x20 }
  - { offset: 0x8227, size: 0x8, addend: 0x0, symName: __ZNKSt3__111__wrap_iterIPKNS_4pairIyyEEE4baseB8ue170006Ev, symObjAddr: 0x4D0, symBinAddr: 0x1000010AC, symSize: 0x18 }
  - { offset: 0x824B, size: 0x8, addend: 0x0, symName: __ZNSt3__16vectorINS_4pairIyyEENS_9allocatorIS2_EEEC2B8ue170006Ev, symObjAddr: 0x4E8, symBinAddr: 0x1000010C4, symSize: 0x44 }
  - { offset: 0x8282, size: 0x8, addend: 0x0, symName: __ZNSt3__117__compressed_pairIPNS_4pairIyyEENS_9allocatorIS2_EEEC1B8ue170006IDnNS_18__default_init_tagEEEOT_OT0_, symObjAddr: 0x52C, symBinAddr: 0x100001108, symSize: 0x3C }
  - { offset: 0x82D8, size: 0x8, addend: 0x0, symName: __ZNSt3__117__compressed_pairIPNS_4pairIyyEENS_9allocatorIS2_EEEC2B8ue170006IDnNS_18__default_init_tagEEEOT_OT0_, symObjAddr: 0x568, symBinAddr: 0x100001144, symSize: 0x40 }
  - { offset: 0x832E, size: 0x8, addend: 0x0, symName: __ZNSt3__122__compressed_pair_elemIPNS_4pairIyyEELi0ELb0EEC2B8ue170006IDnvEEOT_, symObjAddr: 0x5A8, symBinAddr: 0x100001184, symSize: 0x1C }
  - { offset: 0x836E, size: 0x8, addend: 0x0, symName: __ZNSt3__122__compressed_pair_elemINS_9allocatorINS_4pairIyyEEEELi1ELb1EEC2B8ue170006ENS_18__default_init_tagE, symObjAddr: 0x5C4, symBinAddr: 0x1000011A0, symSize: 0x2C }
  - { offset: 0x83A1, size: 0x8, addend: 0x0, symName: __ZNSt3__19allocatorINS_4pairIyyEEEC2B8ue170006Ev, symObjAddr: 0x5F0, symBinAddr: 0x1000011CC, symSize: 0x2C }
  - { offset: 0x83C9, size: 0x8, addend: 0x0, symName: __ZNSt3__116__non_trivial_ifILb1ENS_9allocatorINS_4pairIyyEEEEEC2B8ue170006Ev, symObjAddr: 0x61C, symBinAddr: 0x1000011F8, symSize: 0x14 }
  - { offset: 0x83F1, size: 0x8, addend: 0x0, symName: __ZNSt3__16vectorINS_4pairIyyEENS_9allocatorIS2_EEED2B8ue170006Ev, symObjAddr: 0x630, symBinAddr: 0x10000120C, symSize: 0x3C }
  - { offset: 0x8419, size: 0x8, addend: 0x0, symName: __ZNSt3__16vectorINS_4pairIyyEENS_9allocatorIS2_EEE16__destroy_vectorC1B8ue170006ERS5_, symObjAddr: 0x66C, symBinAddr: 0x100001248, symSize: 0x34 }
  - { offset: 0x8450, size: 0x8, addend: 0x0, symName: __ZNSt3__16vectorINS_4pairIyyEENS_9allocatorIS2_EEE16__destroy_vectorclB8ue170006Ev, symObjAddr: 0x6A0, symBinAddr: 0x10000127C, symSize: 0x90 }
  - { offset: 0x8474, size: 0x8, addend: 0x0, symName: __ZNSt3__16vectorINS_4pairIyyEENS_9allocatorIS2_EEE16__destroy_vectorC2B8ue170006ERS5_, symObjAddr: 0x730, symBinAddr: 0x10000130C, symSize: 0x20 }
  - { offset: 0x84AB, size: 0x8, addend: 0x0, symName: __ZNSt3__16vectorINS_4pairIyyEENS_9allocatorIS2_EEE7__clearB8ue170006Ev, symObjAddr: 0x750, symBinAddr: 0x10000132C, symSize: 0x28 }
  - { offset: 0x84CF, size: 0x8, addend: 0x0, symName: __ZNKSt3__16vectorINS_4pairIyyEENS_9allocatorIS2_EEE17__annotate_deleteB8ue170006Ev, symObjAddr: 0x778, symBinAddr: 0x100001354, symSize: 0xB8 }
  - { offset: 0x84F4, size: 0x8, addend: 0x0, symName: __ZNSt3__116allocator_traitsINS_9allocatorINS_4pairIyyEEEEE10deallocateB8ue170006ERS4_PS3_m, symObjAddr: 0x830, symBinAddr: 0x10000140C, symSize: 0x34 }
  - { offset: 0x8535, size: 0x8, addend: 0x0, symName: __ZNSt3__16vectorINS_4pairIyyEENS_9allocatorIS2_EEE7__allocB8ue170006Ev, symObjAddr: 0x864, symBinAddr: 0x100001440, symSize: 0x28 }
  - { offset: 0x8559, size: 0x8, addend: 0x0, symName: __ZNKSt3__16vectorINS_4pairIyyEENS_9allocatorIS2_EEE8capacityB8ue170006Ev, symObjAddr: 0x88C, symBinAddr: 0x100001468, symSize: 0x40 }
  - { offset: 0x857D, size: 0x8, addend: 0x0, symName: __ZNSt3__16vectorINS_4pairIyyEENS_9allocatorIS2_EEE22__base_destruct_at_endB8ue170006EPS2_, symObjAddr: 0x8CC, symBinAddr: 0x1000014A8, symSize: 0xA0 }
  - { offset: 0x85C0, size: 0x8, addend: 0x0, symName: __ZNSt3__116allocator_traitsINS_9allocatorINS_4pairIyyEEEEE7destroyB8ue170006IS3_vEEvRS4_PT_, symObjAddr: 0x96C, symBinAddr: 0x100001548, symSize: 0x2C }
  - { offset: 0x85FC, size: 0x8, addend: 0x0, symName: __ZNSt3__19allocatorINS_4pairIyyEEE7destroyB8ue170006EPS2_, symObjAddr: 0x9AC, symBinAddr: 0x100001588, symSize: 0x14 }
  - { offset: 0x862E, size: 0x8, addend: 0x0, symName: __ZNKSt3__16vectorINS_4pairIyyEENS_9allocatorIS2_EEE31__annotate_contiguous_containerB8ue170006EPKvS7_S7_S7_, symObjAddr: 0x9C0, symBinAddr: 0x10000159C, symSize: 0x20 }
  - { offset: 0x8682, size: 0x8, addend: 0x0, symName: __ZNKSt3__16vectorINS_4pairIyyEENS_9allocatorIS2_EEE4dataB8ue170006Ev, symObjAddr: 0x9E0, symBinAddr: 0x1000015BC, symSize: 0x28 }
  - { offset: 0x86A6, size: 0x8, addend: 0x0, symName: __ZNKSt3__16vectorINS_4pairIyyEENS_9allocatorIS2_EEE4sizeB8ue170006Ev, symObjAddr: 0xA08, symBinAddr: 0x1000015E4, symSize: 0x28 }
  - { offset: 0x86CA, size: 0x8, addend: 0x0, symName: __ZNSt3__19allocatorINS_4pairIyyEEE10deallocateB8ue170006EPS2_m, symObjAddr: 0xA30, symBinAddr: 0x10000160C, symSize: 0x70 }
  - { offset: 0x870A, size: 0x8, addend: 0x0, symName: __ZNSt3__117__compressed_pairIPNS_4pairIyyEENS_9allocatorIS2_EEE6secondB8ue170006Ev, symObjAddr: 0xB28, symBinAddr: 0x100001704, symSize: 0x24 }
  - { offset: 0x872E, size: 0x8, addend: 0x0, symName: __ZNSt3__122__compressed_pair_elemINS_9allocatorINS_4pairIyyEEEELi1ELb1EE5__getB8ue170006Ev, symObjAddr: 0xB4C, symBinAddr: 0x100001728, symSize: 0x14 }
  - { offset: 0x8752, size: 0x8, addend: 0x0, symName: __ZNKSt3__16vectorINS_4pairIyyEENS_9allocatorIS2_EEE9__end_capB8ue170006Ev, symObjAddr: 0xB60, symBinAddr: 0x10000173C, symSize: 0x28 }
  - { offset: 0x8776, size: 0x8, addend: 0x0, symName: __ZNKSt3__117__compressed_pairIPNS_4pairIyyEENS_9allocatorIS2_EEE5firstB8ue170006Ev, symObjAddr: 0xB88, symBinAddr: 0x100001764, symSize: 0x24 }
  - { offset: 0x879A, size: 0x8, addend: 0x0, symName: __ZNKSt3__122__compressed_pair_elemIPNS_4pairIyyEELi0ELb0EE5__getB8ue170006Ev, symObjAddr: 0xBAC, symBinAddr: 0x100001788, symSize: 0x14 }
  - { offset: 0x87BE, size: 0x8, addend: 0x0, symName: __ZNSt3__14pairIyyEC2B8ue170006Ev, symObjAddr: 0xBC0, symBinAddr: 0x10000179C, symSize: 0x1C }
  - { offset: 0x87E6, size: 0x8, addend: 0x0, symName: __ZNSt3__16vectorINS_4pairIyyEENS_9allocatorIS2_EEE9__end_capB8ue170006Ev, symObjAddr: 0xBDC, symBinAddr: 0x1000017B8, symSize: 0x28 }
  - { offset: 0x880A, size: 0x8, addend: 0x0, symName: __ZNSt3__16vectorINS_4pairIyyEENS_9allocatorIS2_EEE22__construct_one_at_endB8ue170006IJRKS2_EEEvDpOT_, symObjAddr: 0xC04, symBinAddr: 0x1000017E0, symSize: 0x98 }
  - { offset: 0x8857, size: 0x8, addend: 0x0, symName: __ZNSt3__16vectorINS_4pairIyyEENS_9allocatorIS2_EEE21__push_back_slow_pathIRKS2_EEvOT_, symObjAddr: 0xC9C, symBinAddr: 0x100001878, symSize: 0xE0 }
  - { offset: 0x88B3, size: 0x8, addend: 0x0, symName: __ZNSt3__117__compressed_pairIPNS_4pairIyyEENS_9allocatorIS2_EEE5firstB8ue170006Ev, symObjAddr: 0xD7C, symBinAddr: 0x100001958, symSize: 0x24 }
  - { offset: 0x88D7, size: 0x8, addend: 0x0, symName: __ZNSt3__122__compressed_pair_elemIPNS_4pairIyyEELi0ELb0EE5__getB8ue170006Ev, symObjAddr: 0xDA0, symBinAddr: 0x10000197C, symSize: 0x14 }
  - { offset: 0x8914, size: 0x8, addend: 0x0, symName: __ZNSt3__16vectorINS_4pairIyyEENS_9allocatorIS2_EEE21_ConstructTransactionC1B8ue170006ERS5_m, symObjAddr: 0xDB4, symBinAddr: 0x100001990, symSize: 0x3C }
  - { offset: 0x895B, size: 0x8, addend: 0x0, symName: __ZNSt3__116allocator_traitsINS_9allocatorINS_4pairIyyEEEEE9constructB8ue170006IS3_JRKS3_EvEEvRS4_PT_DpOT0_, symObjAddr: 0xDF0, symBinAddr: 0x1000019CC, symSize: 0x34 }
  - { offset: 0x89B1, size: 0x8, addend: 0x0, symName: __ZNSt3__16vectorINS_4pairIyyEENS_9allocatorIS2_EEE21_ConstructTransactionD1B8ue170006Ev, symObjAddr: 0xE24, symBinAddr: 0x100001A00, symSize: 0x2C }
  - { offset: 0x89D9, size: 0x8, addend: 0x0, symName: __ZNSt3__16vectorINS_4pairIyyEENS_9allocatorIS2_EEE21_ConstructTransactionC2B8ue170006ERS5_m, symObjAddr: 0xE60, symBinAddr: 0x100001A3C, symSize: 0x44 }
  - { offset: 0x8A1F, size: 0x8, addend: 0x0, symName: __ZNSt3__19allocatorINS_4pairIyyEEE9constructB8ue170006IS2_JRKS2_EEEvPT_DpOT0_, symObjAddr: 0xEA4, symBinAddr: 0x100001A80, symSize: 0x28 }
  - { offset: 0x8A73, size: 0x8, addend: 0x0, symName: __ZNSt3__16vectorINS_4pairIyyEENS_9allocatorIS2_EEE21_ConstructTransactionD2B8ue170006Ev, symObjAddr: 0xECC, symBinAddr: 0x100001AA8, symSize: 0x20 }
  - { offset: 0x8A9B, size: 0x8, addend: 0x0, symName: __ZNKSt3__16vectorINS_4pairIyyEENS_9allocatorIS2_EEE11__recommendB8ue170006Em, symObjAddr: 0xEEC, symBinAddr: 0x100001AC8, symSize: 0xB4 }
  - { offset: 0x8AEF, size: 0x8, addend: 0x0, symName: __ZNSt3__114__split_bufferINS_4pairIyyEERNS_9allocatorIS2_EEEC1EmmS5_, symObjAddr: 0xFA0, symBinAddr: 0x100001B7C, symSize: 0x44 }
  - { offset: 0x8B44, size: 0x8, addend: 0x0, symName: __ZNSt3__114__split_bufferINS_4pairIyyEERNS_9allocatorIS2_EEED1Ev, symObjAddr: 0x10F4, symBinAddr: 0x100001CD0, symSize: 0x2C }
  - { offset: 0x8B6E, size: 0x8, addend: 0x0, symName: __ZNKSt3__16vectorINS_4pairIyyEENS_9allocatorIS2_EEE8max_sizeEv, symObjAddr: 0x1120, symBinAddr: 0x100001CFC, symSize: 0x74 }
  - { offset: 0x8B94, size: 0x8, addend: 0x0, symName: __ZNKSt3__16vectorINS_4pairIyyEENS_9allocatorIS2_EEE20__throw_length_errorB8ue170006Ev, symObjAddr: 0x1194, symBinAddr: 0x100001D70, symSize: 0x1C }
  - { offset: 0x8BC3, size: 0x8, addend: 0x0, symName: __ZNSt3__116allocator_traitsINS_9allocatorINS_4pairIyyEEEEE8max_sizeB8ue170006IS4_vEEmRKS4_, symObjAddr: 0x1208, symBinAddr: 0x100001DE4, symSize: 0x24 }
  - { offset: 0x8BF0, size: 0x8, addend: 0x0, symName: __ZNKSt3__16vectorINS_4pairIyyEENS_9allocatorIS2_EEE7__allocB8ue170006Ev, symObjAddr: 0x122C, symBinAddr: 0x100001E08, symSize: 0x28 }
  - { offset: 0x8C15, size: 0x8, addend: 0x0, symName: __ZNSt3__114numeric_limitsIlE3maxB8ue170006Ev, symObjAddr: 0x1254, symBinAddr: 0x100001E30, symSize: 0x14 }
  - { offset: 0x8C3C, size: 0x8, addend: 0x0, symName: __ZNKSt3__16__lessIvvEclB8ue170006ImmEEbRKT_RKT0_, symObjAddr: 0x12BC, symBinAddr: 0x100001E98, symSize: 0x34 }
  - { offset: 0x8C8E, size: 0x8, addend: 0x0, symName: __ZNKSt3__19allocatorINS_4pairIyyEEE8max_sizeB8ue170006Ev, symObjAddr: 0x12F0, symBinAddr: 0x100001ECC, symSize: 0x14 }
  - { offset: 0x8CB2, size: 0x8, addend: 0x0, symName: __ZNKSt3__117__compressed_pairIPNS_4pairIyyEENS_9allocatorIS2_EEE6secondB8ue170006Ev, symObjAddr: 0x1304, symBinAddr: 0x100001EE0, symSize: 0x24 }
  - { offset: 0x8CD6, size: 0x8, addend: 0x0, symName: __ZNKSt3__122__compressed_pair_elemINS_9allocatorINS_4pairIyyEEEELi1ELb1EE5__getB8ue170006Ev, symObjAddr: 0x1328, symBinAddr: 0x100001F04, symSize: 0x14 }
  - { offset: 0x8CFB, size: 0x8, addend: 0x0, symName: __ZNSt3__123__libcpp_numeric_limitsIlLb1EE3maxB8ue170006Ev, symObjAddr: 0x133C, symBinAddr: 0x100001F18, symSize: 0x8 }
  - { offset: 0x8D0E, size: 0x8, addend: 0x0, symName: __ZNSt12length_errorC1B8ue170006EPKc, symObjAddr: 0x13A8, symBinAddr: 0x100001F84, symSize: 0x34 }
  - { offset: 0x8D44, size: 0x8, addend: 0x0, symName: __ZNSt12length_errorC2B8ue170006EPKc, symObjAddr: 0x13DC, symBinAddr: 0x100001FB8, symSize: 0x44 }
  - { offset: 0x8D7B, size: 0x8, addend: 0x0, symName: __ZNSt3__114__split_bufferINS_4pairIyyEERNS_9allocatorIS2_EEEC2EmmS5_, symObjAddr: 0x1474, symBinAddr: 0x100002050, symSize: 0xD4 }
  - { offset: 0x8DEC, size: 0x8, addend: 0x0, symName: __ZNSt3__117__compressed_pairIPNS_4pairIyyEERNS_9allocatorIS2_EEEC1B8ue170006IDnS6_EEOT_OT0_, symObjAddr: 0x1548, symBinAddr: 0x100002124, symSize: 0x3C }
  - { offset: 0x8E42, size: 0x8, addend: 0x0, symName: __ZNSt3__114__split_bufferINS_4pairIyyEERNS_9allocatorIS2_EEE7__allocB8ue170006Ev, symObjAddr: 0x15C4, symBinAddr: 0x1000021A0, symSize: 0x28 }
  - { offset: 0x8E66, size: 0x8, addend: 0x0, symName: __ZNSt3__114__split_bufferINS_4pairIyyEERNS_9allocatorIS2_EEE9__end_capB8ue170006Ev, symObjAddr: 0x15EC, symBinAddr: 0x1000021C8, symSize: 0x28 }
  - { offset: 0x8E8A, size: 0x8, addend: 0x0, symName: __ZNSt3__117__compressed_pairIPNS_4pairIyyEERNS_9allocatorIS2_EEEC2B8ue170006IDnS6_EEOT_OT0_, symObjAddr: 0x1614, symBinAddr: 0x1000021F0, symSize: 0x48 }
  - { offset: 0x8EE0, size: 0x8, addend: 0x0, symName: __ZNSt3__122__compressed_pair_elemIRNS_9allocatorINS_4pairIyyEEEELi1ELb0EEC2B8ue170006IS5_vEEOT_, symObjAddr: 0x165C, symBinAddr: 0x100002238, symSize: 0x20 }
  - { offset: 0x8F20, size: 0x8, addend: 0x0, symName: __ZNSt3__19allocatorINS_4pairIyyEEE8allocateB8ue170006Em, symObjAddr: 0x167C, symBinAddr: 0x100002258, symSize: 0x84 }
  - { offset: 0x8F52, size: 0x8, addend: 0x0, symName: __ZNSt3__117__compressed_pairIPNS_4pairIyyEERNS_9allocatorIS2_EEE6secondB8ue170006Ev, symObjAddr: 0x1780, symBinAddr: 0x10000235C, symSize: 0x28 }
  - { offset: 0x8F76, size: 0x8, addend: 0x0, symName: __ZNSt3__122__compressed_pair_elemIRNS_9allocatorINS_4pairIyyEEEELi1ELb0EE5__getB8ue170006Ev, symObjAddr: 0x17A8, symBinAddr: 0x100002384, symSize: 0x18 }
  - { offset: 0x8F9A, size: 0x8, addend: 0x0, symName: __ZNSt3__117__compressed_pairIPNS_4pairIyyEERNS_9allocatorIS2_EEE5firstB8ue170006Ev, symObjAddr: 0x17C0, symBinAddr: 0x10000239C, symSize: 0x24 }
  - { offset: 0x8FBE, size: 0x8, addend: 0x0, symName: __ZNSt3__116reverse_iteratorIPNS_4pairIyyEEEC1B8ue170006ES3_, symObjAddr: 0x1918, symBinAddr: 0x1000024F4, symSize: 0x34 }
  - { offset: 0x8FF4, size: 0x8, addend: 0x0, symName: __ZNKSt3__116reverse_iteratorIPNS_4pairIyyEEE4baseB8ue170006Ev, symObjAddr: 0x194C, symBinAddr: 0x100002528, symSize: 0x18 }
  - { offset: 0x9018, size: 0x8, addend: 0x0, symName: __ZNKSt3__16vectorINS_4pairIyyEENS_9allocatorIS2_EEE14__annotate_newB8ue170006Em, symObjAddr: 0x19A0, symBinAddr: 0x10000257C, symSize: 0xAC }
  - { offset: 0x904B, size: 0x8, addend: 0x0, symName: __ZNSt3__129_AllocatorDestroyRangeReverseINS_9allocatorINS_4pairIyyEEEENS_16reverse_iteratorIPS3_EEEC1B8ue170006ERS4_RS7_SA_, symObjAddr: 0x1A98, symBinAddr: 0x100002674, symSize: 0x44 }
  - { offset: 0x90A1, size: 0x8, addend: 0x0, symName: __ZNSt3__116allocator_traitsINS_9allocatorINS_4pairIyyEEEEE9constructB8ue170006IS3_JS3_EvEEvRS4_PT_DpOT0_, symObjAddr: 0x1B24, symBinAddr: 0x100002700, symSize: 0x34 }
  - { offset: 0x90F7, size: 0x8, addend: 0x0, symName: __ZNKSt3__116reverse_iteratorIPNS_4pairIyyEEEdeB8ue170006Ev, symObjAddr: 0x1B7C, symBinAddr: 0x100002758, symSize: 0x28 }
  - { offset: 0x9129, size: 0x8, addend: 0x0, symName: __ZNSt3__116reverse_iteratorIPNS_4pairIyyEEEppB8ue170006Ev, symObjAddr: 0x1BA4, symBinAddr: 0x100002780, symSize: 0x20 }
  - { offset: 0x914D, size: 0x8, addend: 0x0, symName: __ZNSt3__128__exception_guard_exceptionsINS_29_AllocatorDestroyRangeReverseINS_9allocatorINS_4pairIyyEEEENS_16reverse_iteratorIPS4_EEEEE10__completeB8ue170006Ev, symObjAddr: 0x1BC4, symBinAddr: 0x1000027A0, symSize: 0x1C }
  - { offset: 0x9171, size: 0x8, addend: 0x0, symName: __ZNSt3__128__exception_guard_exceptionsINS_29_AllocatorDestroyRangeReverseINS_9allocatorINS_4pairIyyEEEENS_16reverse_iteratorIPS4_EEEEED1B8ue170006Ev, symObjAddr: 0x1BE0, symBinAddr: 0x1000027BC, symSize: 0x2C }
  - { offset: 0x9199, size: 0x8, addend: 0x0, symName: __ZNSt3__128__exception_guard_exceptionsINS_29_AllocatorDestroyRangeReverseINS_9allocatorINS_4pairIyyEEEENS_16reverse_iteratorIPS4_EEEEEC1B8ue170006ES9_, symObjAddr: 0x1C0C, symBinAddr: 0x1000027E8, symSize: 0x34 }
  - { offset: 0x91D0, size: 0x8, addend: 0x0, symName: __ZNSt3__128__exception_guard_exceptionsINS_29_AllocatorDestroyRangeReverseINS_9allocatorINS_4pairIyyEEEENS_16reverse_iteratorIPS4_EEEEEC2B8ue170006ES9_, symObjAddr: 0x1C40, symBinAddr: 0x10000281C, symSize: 0x30 }
  - { offset: 0x9207, size: 0x8, addend: 0x0, symName: __ZNSt3__129_AllocatorDestroyRangeReverseINS_9allocatorINS_4pairIyyEEEENS_16reverse_iteratorIPS3_EEEC2B8ue170006ERS4_RS7_SA_, symObjAddr: 0x1C70, symBinAddr: 0x10000284C, symSize: 0x38 }
  - { offset: 0x925C, size: 0x8, addend: 0x0, symName: __ZNSt3__19allocatorINS_4pairIyyEEE9constructB8ue170006IS2_JS2_EEEvPT_DpOT0_, symObjAddr: 0x1CA8, symBinAddr: 0x100002884, symSize: 0x28 }
  - { offset: 0x92B6, size: 0x8, addend: 0x0, symName: __ZNSt3__119__to_address_helperINS_16reverse_iteratorIPNS_4pairIyyEEEEvE6__callB8ue170006ERKS5_, symObjAddr: 0x1CD0, symBinAddr: 0x1000028AC, symSize: 0x4C }
  - { offset: 0x92D8, size: 0x8, addend: 0x0, symName: __ZNKSt3__116reverse_iteratorIPNS_4pairIyyEEEptB8ue170006Ev, symObjAddr: 0x1D1C, symBinAddr: 0x1000028F8, symSize: 0x24 }
  - { offset: 0x92FC, size: 0x8, addend: 0x0, symName: __ZNSt3__128__exception_guard_exceptionsINS_29_AllocatorDestroyRangeReverseINS_9allocatorINS_4pairIyyEEEENS_16reverse_iteratorIPS4_EEEEED2B8ue170006Ev, symObjAddr: 0x1D40, symBinAddr: 0x10000291C, symSize: 0x48 }
  - { offset: 0x9324, size: 0x8, addend: 0x0, symName: __ZNKSt3__129_AllocatorDestroyRangeReverseINS_9allocatorINS_4pairIyyEEEENS_16reverse_iteratorIPS3_EEEclB8ue170006Ev, symObjAddr: 0x1D88, symBinAddr: 0x100002964, symSize: 0xB4 }
  - { offset: 0x9349, size: 0x8, addend: 0x0, symName: __ZNSt3__116reverse_iteratorINS0_IPNS_4pairIyyEEEEEC1B8ue170006ES4_, symObjAddr: 0x1EAC, symBinAddr: 0x100002A88, symSize: 0x3C }
  - { offset: 0x937F, size: 0x8, addend: 0x0, symName: __ZNSt3__116reverse_iteratorINS0_IPNS_4pairIyyEEEEEppB8ue170006Ev, symObjAddr: 0x1F6C, symBinAddr: 0x100002B48, symSize: 0x30 }
  - { offset: 0x93A3, size: 0x8, addend: 0x0, symName: __ZNKSt3__116reverse_iteratorINS0_IPNS_4pairIyyEEEEE4baseB8ue170006Ev, symObjAddr: 0x1F9C, symBinAddr: 0x100002B78, symSize: 0x24 }
  - { offset: 0x93CD, size: 0x8, addend: 0x0, symName: __ZNSt3__119__to_address_helperINS_16reverse_iteratorINS1_IPNS_4pairIyyEEEEEEvE6__callB8ue170006ERKS6_, symObjAddr: 0x1FC0, symBinAddr: 0x100002B9C, symSize: 0x4C }
  - { offset: 0x93EF, size: 0x8, addend: 0x0, symName: __ZNKSt3__116reverse_iteratorINS0_IPNS_4pairIyyEEEEEptB8ue170006Ev, symObjAddr: 0x200C, symBinAddr: 0x100002BE8, symSize: 0x24 }
  - { offset: 0x9413, size: 0x8, addend: 0x0, symName: __ZNKSt3__116reverse_iteratorINS0_IPNS_4pairIyyEEEEEdeB8ue170006Ev, symObjAddr: 0x2030, symBinAddr: 0x100002C0C, symSize: 0x34 }
  - { offset: 0x9445, size: 0x8, addend: 0x0, symName: __ZNSt3__116reverse_iteratorIPNS_4pairIyyEEEmmB8ue170006Ev, symObjAddr: 0x2064, symBinAddr: 0x100002C40, symSize: 0x20 }
  - { offset: 0x9469, size: 0x8, addend: 0x0, symName: __ZNSt3__116reverse_iteratorINS0_IPNS_4pairIyyEEEEEC2B8ue170006ES4_, symObjAddr: 0x2084, symBinAddr: 0x100002C60, symSize: 0x2C }
  - { offset: 0x949F, size: 0x8, addend: 0x0, symName: __ZNSt3__116reverse_iteratorIPNS_4pairIyyEEEC2B8ue170006ES3_, symObjAddr: 0x20B0, symBinAddr: 0x100002C8C, symSize: 0x28 }
  - { offset: 0x94D6, size: 0x8, addend: 0x0, symName: __ZNSt3__114__split_bufferINS_4pairIyyEERNS_9allocatorIS2_EEED2Ev, symObjAddr: 0x20D8, symBinAddr: 0x100002CB4, symSize: 0x80 }
  - { offset: 0x9500, size: 0x8, addend: 0x0, symName: __ZNSt3__114__split_bufferINS_4pairIyyEERNS_9allocatorIS2_EEE5clearB8ue170006Ev, symObjAddr: 0x2158, symBinAddr: 0x100002D34, symSize: 0x28 }
  - { offset: 0x9524, size: 0x8, addend: 0x0, symName: __ZNKSt3__114__split_bufferINS_4pairIyyEERNS_9allocatorIS2_EEE8capacityB8ue170006Ev, symObjAddr: 0x2180, symBinAddr: 0x100002D5C, symSize: 0x40 }
  - { offset: 0x9548, size: 0x8, addend: 0x0, symName: __ZNSt3__114__split_bufferINS_4pairIyyEERNS_9allocatorIS2_EEE17__destruct_at_endB8ue170006EPS2_, symObjAddr: 0x21C0, symBinAddr: 0x100002D9C, symSize: 0x2C }
  - { offset: 0x957A, size: 0x8, addend: 0x0, symName: __ZNSt3__114__split_bufferINS_4pairIyyEERNS_9allocatorIS2_EEE17__destruct_at_endB8ue170006EPS2_NS_17integral_constantIbLb0EEE, symObjAddr: 0x21EC, symBinAddr: 0x100002DC8, symSize: 0x94 }
  - { offset: 0x95B9, size: 0x8, addend: 0x0, symName: __ZNKSt3__114__split_bufferINS_4pairIyyEERNS_9allocatorIS2_EEE9__end_capB8ue170006Ev, symObjAddr: 0x2280, symBinAddr: 0x100002E5C, symSize: 0x28 }
  - { offset: 0x95DD, size: 0x8, addend: 0x0, symName: __ZNKSt3__117__compressed_pairIPNS_4pairIyyEERNS_9allocatorIS2_EEE5firstB8ue170006Ev, symObjAddr: 0x22A8, symBinAddr: 0x100002E84, symSize: 0x24 }
  - { offset: 0x9602, size: 0x8, addend: 0x0, symName: __ZNSt3__111char_traitsIcE6lengthB8ue170006EPKc, symObjAddr: 0x24C0, symBinAddr: 0x10000309C, symSize: 0x48 }
  - { offset: 0x9642, size: 0x8, addend: 0x0, symName: __ZNKSt3__113basic_ostreamIcNS_11char_traitsIcEEE6sentrycvbB8ue170006Ev, symObjAddr: 0x2508, symBinAddr: 0x1000030E4, symSize: 0x1C }
  - { offset: 0x9666, size: 0x8, addend: 0x0, symName: __ZNSt3__119ostreambuf_iteratorIcNS_11char_traitsIcEEEC1B8ue170006ERNS_13basic_ostreamIcS2_EE, symObjAddr: 0x276C, symBinAddr: 0x100003348, symSize: 0x34 }
  - { offset: 0x969D, size: 0x8, addend: 0x0, symName: __ZNKSt3__18ios_base5flagsB8ue170006Ev, symObjAddr: 0x27A0, symBinAddr: 0x10000337C, symSize: 0x18 }
  - { offset: 0x96C3, size: 0x8, addend: 0x0, symName: __ZNKSt3__19basic_iosIcNS_11char_traitsIcEEE4fillB8ue170006Ev, symObjAddr: 0x27B8, symBinAddr: 0x100003394, symSize: 0x64 }
  - { offset: 0x96E9, size: 0x8, addend: 0x0, symName: __ZNKSt3__119ostreambuf_iteratorIcNS_11char_traitsIcEEE6failedB8ue170006Ev, symObjAddr: 0x281C, symBinAddr: 0x1000033F8, symSize: 0x24 }
  - { offset: 0x970D, size: 0x8, addend: 0x0, symName: __ZNSt3__19basic_iosIcNS_11char_traitsIcEEE8setstateB8ue170006Ej, symObjAddr: 0x2840, symBinAddr: 0x10000341C, symSize: 0x2C }
  - { offset: 0x9741, size: 0x8, addend: 0x0, symName: __ZNKSt3__18ios_base5widthB8ue170006Ev, symObjAddr: 0x286C, symBinAddr: 0x100003448, symSize: 0x18 }
  - { offset: 0x9767, size: 0x8, addend: 0x0, symName: __ZNSt3__115basic_streambufIcNS_11char_traitsIcEEE5sputnB8ue170006EPKcl, symObjAddr: 0x2884, symBinAddr: 0x100003460, symSize: 0x3C }
  - { offset: 0x97A7, size: 0x8, addend: 0x0, symName: __ZNSt3__112basic_stringIcNS_11char_traitsIcEENS_9allocatorIcEEEC1B8ue170006Emc, symObjAddr: 0x28C0, symBinAddr: 0x10000349C, symSize: 0x3C }
  - { offset: 0x97ED, size: 0x8, addend: 0x0, symName: __ZNKSt3__112basic_stringIcNS_11char_traitsIcEENS_9allocatorIcEEE4dataB8ue170006Ev, symObjAddr: 0x28FC, symBinAddr: 0x1000034D8, symSize: 0x28 }
  - { offset: 0x9812, size: 0x8, addend: 0x0, symName: __ZNSt3__18ios_base5widthB8ue170006El, symObjAddr: 0x2924, symBinAddr: 0x100003500, symSize: 0x2C }
  - { offset: 0x9856, size: 0x8, addend: 0x0, symName: __ZNSt3__112basic_stringIcNS_11char_traitsIcEENS_9allocatorIcEEEC2B8ue170006Emc, symObjAddr: 0x2950, symBinAddr: 0x10000352C, symSize: 0x4C }
  - { offset: 0x989C, size: 0x8, addend: 0x0, symName: __ZNSt3__117__compressed_pairINS_12basic_stringIcNS_11char_traitsIcEENS_9allocatorIcEEE5__repES5_EC1B8ue170006INS_18__default_init_tagESA_EEOT_OT0_, symObjAddr: 0x299C, symBinAddr: 0x100003578, symSize: 0x3C }
  - { offset: 0x98F2, size: 0x8, addend: 0x0, symName: __ZNSt3__117__compressed_pairINS_12basic_stringIcNS_11char_traitsIcEENS_9allocatorIcEEE5__repES5_EC2B8ue170006INS_18__default_init_tagESA_EEOT_OT0_, symObjAddr: 0x29D8, symBinAddr: 0x1000035B4, symSize: 0x3C }
  - { offset: 0x9948, size: 0x8, addend: 0x0, symName: __ZNSt3__122__compressed_pair_elemINS_12basic_stringIcNS_11char_traitsIcEENS_9allocatorIcEEE5__repELi0ELb0EEC2B8ue170006ENS_18__default_init_tagE, symObjAddr: 0x2A14, symBinAddr: 0x1000035F0, symSize: 0x14 }
  - { offset: 0x997B, size: 0x8, addend: 0x0, symName: __ZNSt3__122__compressed_pair_elemINS_9allocatorIcEELi1ELb1EEC2B8ue170006ENS_18__default_init_tagE, symObjAddr: 0x2A28, symBinAddr: 0x100003604, symSize: 0x2C }
  - { offset: 0x99AE, size: 0x8, addend: 0x0, symName: __ZNSt3__19allocatorIcEC2B8ue170006Ev, symObjAddr: 0x2A54, symBinAddr: 0x100003630, symSize: 0x2C }
  - { offset: 0x99D6, size: 0x8, addend: 0x0, symName: __ZNSt3__116__non_trivial_ifILb1ENS_9allocatorIcEEEC2B8ue170006Ev, symObjAddr: 0x2A80, symBinAddr: 0x10000365C, symSize: 0x14 }
  - { offset: 0x99FE, size: 0x8, addend: 0x0, symName: __ZNKSt3__112basic_stringIcNS_11char_traitsIcEENS_9allocatorIcEEE13__get_pointerB8ue170006Ev, symObjAddr: 0x2AA8, symBinAddr: 0x100003684, symSize: 0x54 }
  - { offset: 0x9A22, size: 0x8, addend: 0x0, symName: __ZNKSt3__112basic_stringIcNS_11char_traitsIcEENS_9allocatorIcEEE9__is_longB8ue170006Ev, symObjAddr: 0x2AFC, symBinAddr: 0x1000036D8, symSize: 0x74 }
  - { offset: 0x9A46, size: 0x8, addend: 0x0, symName: __ZNKSt3__112basic_stringIcNS_11char_traitsIcEENS_9allocatorIcEEE18__get_long_pointerB8ue170006Ev, symObjAddr: 0x2B70, symBinAddr: 0x10000374C, symSize: 0x28 }
  - { offset: 0x9A6A, size: 0x8, addend: 0x0, symName: __ZNKSt3__112basic_stringIcNS_11char_traitsIcEENS_9allocatorIcEEE19__get_short_pointerB8ue170006Ev, symObjAddr: 0x2B98, symBinAddr: 0x100003774, symSize: 0x28 }
  - { offset: 0x9A8E, size: 0x8, addend: 0x0, symName: __ZNKSt3__117__compressed_pairINS_12basic_stringIcNS_11char_traitsIcEENS_9allocatorIcEEE5__repES5_E5firstB8ue170006Ev, symObjAddr: 0x2BC0, symBinAddr: 0x10000379C, symSize: 0x24 }
  - { offset: 0x9AB2, size: 0x8, addend: 0x0, symName: __ZNKSt3__122__compressed_pair_elemINS_12basic_stringIcNS_11char_traitsIcEENS_9allocatorIcEEE5__repELi0ELb0EE5__getB8ue170006Ev, symObjAddr: 0x2BE4, symBinAddr: 0x1000037C0, symSize: 0x14 }
  - { offset: 0x9AD7, size: 0x8, addend: 0x0, symName: __ZNSt3__114pointer_traitsIPKcE10pointer_toB8ue170006ERS1_, symObjAddr: 0x2BF8, symBinAddr: 0x1000037D4, symSize: 0x14 }
  - { offset: 0x9AF9, size: 0x8, addend: 0x0, symName: __ZNSt3__119ostreambuf_iteratorIcNS_11char_traitsIcEEEC2B8ue170006ERNS_13basic_ostreamIcS2_EE, symObjAddr: 0x2C0C, symBinAddr: 0x1000037E8, symSize: 0x68 }
  - { offset: 0x9B2F, size: 0x8, addend: 0x0, symName: __ZNKSt3__19basic_iosIcNS_11char_traitsIcEEE5rdbufB8ue170006Ev, symObjAddr: 0x2C74, symBinAddr: 0x100003850, symSize: 0x24 }
  - { offset: 0x9B55, size: 0x8, addend: 0x0, symName: __ZNKSt3__18ios_base5rdbufB8ue170006Ev, symObjAddr: 0x2C98, symBinAddr: 0x100003874, symSize: 0x18 }
  - { offset: 0x9B7A, size: 0x8, addend: 0x0, symName: __ZNSt3__111char_traitsIcE11eq_int_typeB8ue170006Eii, symObjAddr: 0x2CB0, symBinAddr: 0x10000388C, symSize: 0x28 }
  - { offset: 0x9BAD, size: 0x8, addend: 0x0, symName: __ZNSt3__111char_traitsIcE3eofB8ue170006Ev, symObjAddr: 0x2CD8, symBinAddr: 0x1000038B4, symSize: 0x8 }
  - { offset: 0x9BC0, size: 0x8, addend: 0x0, symName: __ZNKSt3__19basic_iosIcNS_11char_traitsIcEEE5widenB8ue170006Ec, symObjAddr: 0x2CE0, symBinAddr: 0x1000038BC, symSize: 0x8C }
  - { offset: 0x9C37, size: 0x8, addend: 0x0, symName: __ZNKSt3__15ctypeIcE5widenB8ue170006Ec, symObjAddr: 0x2D98, symBinAddr: 0x100003974, symSize: 0x38 }
  - { offset: 0x9C6A, size: 0x8, addend: 0x0, symName: __ZNSt3__18ios_base8setstateB8ue170006Ej, symObjAddr: 0x2DD0, symBinAddr: 0x1000039AC, symSize: 0x34 }
...
